(dp0
V11
p1
(lp2
(lp3
V51
p4
aV52
p5
aV53
p6
aV54
p7
aasV10
p8
(lp9
(lp10
V23
p11
aV55
p12
aasV13
p13
(lp14
(lp15
V51
p16
aV52
p17
aV53
p18
aasV12
p19
(lp20
(lp21
V33
p22
aV34
p23
aasV15
p24
(lp25
(lp26
V21
p27
aV79
p28
aa(lp29
g27
aV80
p30
aasV14
p31
(lp32
(lp33
V7
p34
aV77
p35
aasV17
p36
(lp37
(lp38
V104
p39
aV105
p40
aV106
p41
aV111
p42
aa(lp43
g39
ag40
ag41
aV115
p44
aasV16
p45
(lp46
(lp47
V35
p48
aV36
p49
aV37
p50
aV44
p51
aasV19
p52
(lp53
(lp54
V0
p55
aV1
p56
aa(lp57
V13
p58
aV14
p59
aa(lp60
g58
aV15
p61
aa(lp62
g58
aV87
p63
aasV18
p64
(lp65
(lp66
V104
p67
aa(lp68
V23
p69
aa(lp70
V32
p71
aa(lp72
V62
p73
aasV1
p74
(lp75
(lp76
V31
p77
aasV0
p78
(lp79
(lp80
V27
p81
aV28
p82
aV29
p83
aa(lp84
g81
ag82
aV30
p85
aa(lp86
g81
ag82
aV70
p87
aa(lp88
g81
ag82
aV71
p89
aa(lp90
g81
ag82
aV72
p91
aa(lp92
g81
ag83
ag85
aa(lp93
g81
ag83
ag89
aa(lp94
g81
ag83
ag91
aa(lp95
g81
ag85
ag89
aa(lp96
g81
ag87
ag89
aa(lp97
g81
ag87
ag91
aa(lp98
g81
ag89
ag91
aasV3
p99
(lp100
(lp101
V18
p102
aV19
p103
aV20
p104
aasV2
p105
(lp106
(lp107
V2
p108
aa(lp109
V39
p110
aasV5
p111
(lp112
(lp113
V35
p114
aV36
p115
aa(lp116
g114
aV44
p117
aasV4
p118
(lp119
(lp120
V75
p121
aasV7
p122
(lp123
(lp124
V23
p125
aa(lp126
V32
p127
aasV6
p128
(lp129
(lp130
V38
p131
aV42
p132
aa(lp133
g131
aV43
p134
aasV9
p135
(lp136
(lp137
V2
p138
aV24
p139
aV3
p140
aV5
p141
aa(lp142
g138
aV65
p143
aV66
p144
aV67
p145
aasV8
p146
(lp147
(lp148
V48
p149
aV49
p150
aV50
p151
aa(lp152
g149
ag150
aV61
p153
aa(lp154
g149
ag150
aV64
p155
aas.