(dp0
L0L
(dp1
V25
p2
I2
sV27
p3
I829
sV0
p4
I1
sV48
p5
I1
sV49
p6
I1
sV30
p7
I339
sV28
p8
I415
sV29
p9
I326
sV50
p10
I1
sV1
p11
I1
sV98
p12
I1
sV72
p13
I381
sV71
p14
I411
sV70
p15
I137
ssL1L
(dp16
V66
p17
I1
sV132
p18
I3
sV117
p19
I1
sV65
p20
I1
sV113
p21
I1
sV69
p22
I1
sV82
p23
I3
sV83
p24
I1
sV34
p25
I2
sV84
p26
I3
sV85
p27
I1
sV25
p28
I1
sV20
p29
I3
sV21
p30
I2
sV23
p31
I5
sV45
p32
I22
sV42
p33
I2
sV43
p34
I1
sg11
I10
sg4
I17
sV3
p35
I1
sV2
p36
I3
sV7
p37
I1
sV76
p38
I1
sV108
p39
I9
sV73
p40
I6
sV128
p41
I1
sV92
p42
I1
sV107
p43
I4
sV79
p44
I1
sV39
p45
I2
sV38
p46
I2
sV58
p47
I1
sV17
p48
I1
sV33
p49
I5
sV54
p50
I3
sV31
p51
I879
sV51
p52
I6
sV75
p53
I2
sV53
p54
I5
sV52
p55
I6
sV19
p56
I2
sV88
p57
I1
sV18
p58
I3
sV57
p59
I4
ssL2L
(dp60
V60
p61
I5
sV114
p62
I3
sV68
p63
I1
sV137
p64
I1
sV65
p65
I77
sV66
p66
I63
sV67
p67
I34
sV82
p68
I5
sV69
p69
I4
sV80
p70
I2
sV34
p71
I5
sV118
p72
I2
sV84
p73
I4
sV85
p74
I3
sV24
p75
I6
sV104
p76
I3
sV26
p77
I8
sV101
p78
I2
sV20
p79
I5
sV21
p80
I28
sV22
p81
I1
sV23
p82
I8
sV45
p83
I11
sV42
p84
I9
sV43
p85
I9
sV40
p86
I2
sV41
p87
I310
sV0
p88
I1
sg35
I49
sg36
I321
sV5
p89
I10
sV4
p90
I22
sV6
p91
I13
sV8
p92
I4
sV18
p93
I5
sV25
p94
I9
sV83
p95
I4
sV99
p96
I1
sV75
p97
I61
sV74
p98
I100
sV91
p99
I2
sV103
p100
I245
sV100
p101
I5
sV92
p102
I6
sV106
p103
I3
sV79
p104
I12
sV105
p105
I2
sV115
p106
I2
sV39
p107
I994
sV38
p108
I12
sV59
p109
I1
sV58
p110
I1
sV17
p111
I5
sV33
p112
I55
sV32
p113
I56
sV31
p114
I2
sV51
p115
I32
sV108
p116
I7
sV53
p117
I28
sV52
p118
I25
sV19
p119
I2
sV109
p120
I2
sV88
p121
I1
sV54
p122
I15
sV57
p123
I1
ssL3L
(dp124
V69
p125
I4
sV34
p126
I5
sV85
p127
I4
sV25
p128
I118
sV20
p129
I2101
sV23
p130
I16
sV42
p131
I4
sV43
p132
I3
sV40
p133
I2
sV41
p134
I1
sV74
p135
I1
sV103
p136
I1
sV39
p137
I16
sV38
p138
I5
sV55
p139
I1
sV19
p140
I1065
sV18
p141
I2404
sV51
p142
I40
sV53
p143
I32
sV52
p144
I37
sV33
p145
I14
sV54
p146
I17
ssL4L
(dp147
V68
p148
I1
sV82
p149
I1
sV83
p150
I1
sV25
p151
I1
sV20
p152
I1
sV21
p153
I1
sV23
p154
I3
sV108
p155
I1
sV45
p156
I1
sV41
p157
I1
sg11
I2
sg4
I2
sV122
p158
I1
sV74
p159
I2
sV128
p160
I4
sV39
p161
I6
sV59
p162
I2
sV58
p163
I2
sV19
p164
I1
sV18
p165
I2
sV57
p166
I2
sV75
p167
I1140
sV32
p168
I1
ssL5L
(dp169
V122
p170
I1
sV37
p171
I101
sV48
p172
I3
sV62
p173
I1
sV50
p174
I1
sV132
p175
I6
sV117
p176
I23
sV63
p177
I1
sV53
p178
I21
sV83
p179
I6
sV68
p180
I98
sV69
p181
I4
sV139
p182
I1
sV32
p183
I11
sV86
p184
I1
sV87
p185
I1
sV84
p186
I5
sV85
p187
I10
sV25
p188
I12
sV76
p189
I4
sV20
p190
I7
sV21
p191
I27
sV22
p192
I7
sV23
p193
I102
sV108
p194
I4
sV47
p195
I42
sV44
p196
I201
sV45
p197
I28
sV42
p198
I12
sV43
p199
I8
sV40
p200
I1
sV41
p201
I4
sg11
I42
sg4
I69
sV2
p202
I2
sV7
p203
I1
sV9
p204
I8
sV8
p205
I21
sV49
p206
I3
sV82
p207
I6
sV33
p208
I9
sV13
p209
I1
sV34
p210
I1
sV120
p211
I11
sV98
p212
I2
sV75
p213
I355
sV74
p214
I14
sV73
p215
I22
sV118
p216
I3
sV128
p217
I6
sV92
p218
I5
sV95
p219
I2
sV107
p220
I7
sV79
p221
I3
sV78
p222
I1
sV11
p223
I8
sV10
p224
I2
sV39
p225
I47
sV38
p226
I18
sV59
p227
I195
sV58
p228
I182
sV80
p229
I3
sV61
p230
I2
sV19
p231
I8
sV18
p232
I9
sV57
p233
I256
sV56
p234
I8
sV51
p235
I28
sV36
p236
I279
sV35
p237
I323
sV52
p238
I18
sV55
p239
I20
sV131
p240
I1
sV123
p241
I2
sV88
p242
I6
sV54
p243
I11
sV124
p244
I2
sV12
p245
I4
sV31
p246
I415
ssL6L
(dp247
V132
p248
I1
sV135
p249
I7
sV41
p250
I3
sV25
p251
I170
sV27
p252
I17
sV20
p253
I68
sV21
p254
I6
sV22
p255
I1
sV23
p256
I207
sV28
p257
I9
sV29
p258
I7
sV0
p259
I36
sV8
p260
I78
sV119
p261
I2
sV122
p262
I8
sV124
p263
I2
sV127
p264
I1
sV59
p265
I14
sV58
p266
I12
sV55
p267
I22
sV54
p268
I57
sV57
p269
I16
sV56
p270
I3
sV51
p271
I130
sV50
p272
I3
sV53
p273
I110
sV52
p274
I100
sV115
p275
I3
sV88
p276
I19
sV116
p277
I5
sV111
p278
I2
sV82
p279
I23
sV83
p280
I22
sV80
p281
I1
sV86
p282
I14
sV87
p283
I14
sV84
p284
I17
sV85
p285
I38
sg35
I4
sg203
I148
sV108
p286
I5
sV102
p287
I1
sV103
p288
I1
sV100
p289
I2
sV106
p290
I5
sV107
p291
I10
sV104
p292
I5
sV105
p293
I3
sV39
p294
I47
sV38
p295
I489
sV33
p296
I51
sV32
p297
I37
sV30
p298
I4
sV37
p299
I1
sV36
p300
I2
sV35
p301
I2
sV34
p302
I10
sV60
p303
I2
sV61
p304
I2
sV62
p305
I8
sV63
p306
I7
sV64
p307
I1
sV65
p308
I1
sV67
p309
I1
sV68
p310
I6
sV69
p311
I206
sg36
I5
sV99
p312
I3
sV90
p313
I14
sV92
p314
I24
sV95
p315
I35
sV94
p316
I16
sV97
p317
I27
sV96
p318
I26
sV11
p319
I4
sV10
p320
I3
sV13
p321
I29
sV12
p322
I2
sV15
p323
I12
sV14
p324
I16
sV17
p325
I1
sV16
p326
I7
sV19
p327
I39
sV18
p328
I74
sV117
p329
I2
sV48
p330
I5
sV49
p331
I5
sV47
p332
I2
sV44
p333
I1
sV45
p334
I11
sV42
p335
I382
sV43
p336
I332
sV40
p337
I5
sV118
p338
I22
sg11
I17
sg89
I1
sg204
I5
sV142
p339
I1
sV77
p340
I42
sV76
p341
I94
sV75
p342
I21
sV74
p343
I9
sV72
p344
I10
sV71
p345
I8
sV70
p346
I4
sV79
p347
I1
sV78
p348
I9
ssL7L
(dp349
V115
p350
I6
sV23
p351
I62
sV55
p352
I5
sV32
p353
I679
sV56
p354
I1
sV133
p355
I1
sV111
p356
I5
sV25
p357
I3
sV47
p358
I1
sV105
p359
I6
sV106
p360
I6
sV107
p361
I1
sV104
p362
I11
sV85
p363
I10
ssL8L
(dp364
V61
p365
I1142
sV116
p366
I118
sV64
p367
I1436
sV86
p368
I37
sV87
p369
I63
sV27
p370
I21
sV21
p371
I1
sV48
p372
I3376
sV49
p373
I2929
sV119
p374
I418
sV28
p375
I12
sV29
p376
I7
sg11
I1636
sV0
p377
I2625
sV98
p378
I514
sV73
p379
I69
sV72
p380
I9
sV71
p381
I10
sV70
p382
I9
sV92
p383
I15
sV78
p384
I24
sV13
p385
I135
sV15
p386
I81
sV14
p387
I88
sV16
p388
I17
sV30
p389
I8
sV50
p390
I1814
ssL9L
(dp391
V117
p392
I3
sV130
p393
I2
sV137
p394
I7
sV65
p395
I345
sV66
p396
I308
sV67
p397
I213
sV68
p398
I2
sV138
p399
I5
sV24
p400
I132
sV26
p401
I1
sV21
p402
I1
sV23
p403
I2
sg11
I1
sg4
I1
sg35
I265
sg36
I843
sg89
I136
sg90
I111
sg91
I100
sV120
p404
I3
sV121
p405
I1
sV109
p406
I3
sV91
p407
I22
sV103
p408
I1
sV101
p409
I9
sV107
p410
I2
sV39
p411
I1
sV59
p412
I3
sV58
p413
I3
sV17
p414
I42
sV33
p415
I3
sV57
p416
I3
sV34
p417
I1
ssL10L
(dp418
V25
p419
I1
sV39
p420
I1
sV20
p421
I1
sV21
p422
I6
sV22
p423
I3
sV23
p424
I20
sV55
p425
I10
sV47
p426
I223
sV56
p427
I2
sV18
p428
I1
sV120
p429
I1
sV19
p430
I1
sV117
p431
I2
sV74
p432
I1
sV7
p433
I1
sV32
p434
I2
sV92
p435
I1
sV107
p436
I1
ssL11L
(dp437
V62
p438
I1
sV60
p439
I2
sV132
p440
I1
sV88
p441
I36
sV65
p442
I4
sV66
p443
I2
sV67
p444
I1
sV68
p445
I1
sV69
p446
I4
sV80
p447
I1
sV34
p448
I9
sV85
p449
I1
sV25
p450
I4
sV20
p451
I13
sV21
p452
I2
sV23
p453
I8
sV45
p454
I4
sV42
p455
I6
sV43
p456
I5
sV40
p457
I8
sg11
I3
sg4
I5
sg35
I1
sg36
I6
sV8
p458
I2
sV120
p459
I1
sV76
p460
I1
sV108
p461
I1
sV124
p462
I1
sV100
p463
I3
sV92
p464
I4
sV39
p465
I11
sV38
p466
I6
sV59
p467
I1
sV58
p468
I1
sV33
p469
I50
sV54
p470
I237
sV31
p471
I9
sV56
p472
I1
sV51
p473
I540
sV117
p474
I3
sV53
p475
I440
sV52
p476
I413
sV19
p477
I8
sV18
p478
I17
sV57
p479
I2
ssL12L
(dp480
V60
p481
I93
sV89
p482
I29
sV65
p483
I1
sV66
p484
I1
sV67
p485
I1
sV82
p486
I1
sV69
p487
I16
sV139
p488
I1
sV52
p489
I9
sV93
p490
I15
sV87
p491
I6
sV84
p492
I1
sV85
p493
I5
sV25
p494
I1
sV81
p495
I2
sV20
p496
I12
sV21
p497
I11
sV23
p498
I27
sV86
p499
I5
sV45
p500
I2
sV42
p501
I25
sV43
p502
I20
sV40
p503
I156
sV118
p504
I1
sg11
I1
sg4
I2
sg36
I1
sV7
p505
I11
sg204
I4
sV8
p506
I2
sV10
p507
I2
sV83
p508
I1
sV99
p509
I17
sV76
p510
I2
sV75
p511
I1
sV12
p512
I2
sV73
p513
I1
sV127
p514
I1
sV100
p515
I86
sV92
p516
I1
sV107
p517
I2
sV32
p518
I7
sV78
p519
I4
sV11
p520
I1
sV77
p521
I2
sV13
p522
I10
sV38
p523
I36
sV15
p524
I5
sV14
p525
I3
sV16
p526
I3
sV33
p527
I1395
sV18
p528
I15
sV56
p529
I1
sV51
p530
I13
sV53
p531
I11
sV34
p532
I245
sV19
p533
I9
sV55
p534
I2
sV94
p535
I2
sV54
p536
I5
ssL13L
(dp537
V62
p538
I4
sV60
p539
I10
sV114
p540
I1
sV88
p541
I376
sV116
p542
I3
sV89
p543
I1
sV65
p544
I1
sV66
p545
I1
sV67
p546
I1
sV69
p547
I132
sV80
p548
I2
sV34
p549
I17
sV86
p550
I1
sV118
p551
I11
sV85
p552
I21
sV25
p553
I129
sV20
p554
I120
sV21
p555
I12
sV22
p556
I1
sV23
p557
I98
sV45
p558
I6
sV42
p559
I238
sV43
p560
I240
sV40
p561
I11
sV87
p562
I1
sg11
I1
sg4
I6
sg35
I1
sg36
I4
sV79
p563
I1
sg203
I3
sV8
p564
I174
sV78
p565
I1
sV32
p566
I34
sV77
p567
I1
sV76
p568
I63
sV122
p569
I10
sV16
p570
I1
sV100
p571
I7
sV101
p572
I1
sV106
p573
I4
sV107
p574
I15
sV104
p575
I4
sV105
p576
I4
sV115
p577
I3
sV13
p578
I3
sV38
p579
I298
sV14
p580
I1
sV55
p581
I8
sV33
p582
I113
sV54
p583
I258
sV31
p584
I11
sV56
p585
I1
sV51
p586
I657
sV108
p587
I2
sV53
p588
I526
sV52
p589
I501
sV19
p590
I57
sV63
p591
I1
sV18
p592
I135
sV111
p593
I1
ssL14L
(dp594
V63
p595
I20
sV135
p596
I11
sV69
p597
I6
sV47
p598
I3
sV42
p599
I11
sV43
p600
I11
sg11
I1
sg4
I1
sV7
p601
I289
sV8
p602
I1
sV78
p603
I1
sV142
p604
I2
sV77
p605
I82
sV76
p606
I1
sV122
p607
I3
sV127
p608
I1
sV102
p609
I10
sV90
p610
I17
sV95
p611
I5
sV94
p612
I30
sV97
p613
I4
sV96
p614
I4
sV13
p615
I1
sV38
p616
I13
sV15
p617
I1
sV14
p618
I1
sV33
p619
I1
sV32
p620
I1
ssL15L
(dp621
V66
p622
I1
sV37
p623
I1
sV48
p624
I1
sV113
p625
I2
sV36
p626
I1
sV60
p627
I10
sV114
p628
I40
sV131
p629
I1
sV89
p630
I5
sV64
p631
I1
sV136
p632
I5
sV117
p633
I5
sV67
p634
I1
sV68
p635
I2
sV69
p636
I1
sV80
p637
I326
sV34
p638
I18
sV139
p639
I1
sV85
p640
I3
sV25
p641
I4
sV76
p642
I1
sV101
p643
I1
sV20
p644
I4
sV21
p645
I1703
sV22
p646
I196
sV23
p647
I23
sV19
p648
I2
sV47
p649
I3
sV44
p650
I1
sV45
p651
I22
sV42
p652
I3
sV43
p653
I4
sV40
p654
I9
sV41
p655
I2
sg11
I5
sg4
I7
sg35
I2
sV2
p656
I7
sg89
I1
sV7
p657
I4
sV9
p658
I2
sV49
p659
I1
sV35
p660
I1
sV32
p661
I7
sV99
p662
I3
sV98
p663
I1
sV75
p664
I3
sV74
p665
I6
sV124
p666
I3
sV128
p667
I1
sV100
p668
I3
sV92
p669
I7
sV107
p670
I7
sV79
p671
I356
sV11
p672
I1
sV10
p673
I1
sV39
p674
I24
sV38
p675
I6
sV59
p676
I5
sV58
p677
I5
sV132
p678
I3
sV33
p679
I105
sV54
p680
I23
sV57
p681
I7
sV56
p682
I4
sV51
p683
I58
sV108
p684
I11
sV53
p685
I48
sV52
p686
I43
sV55
p687
I2
sV18
p688
I4
sV65
p689
I2
ssL16L
(dp690
V132
p691
I1
sV51
p692
I1
sV36
p693
I794
sV19
p694
I1
sV131
p695
I1
sV64
p696
I1
sV53
p697
I1
sV113
p698
I2
sV82
p699
I5
sV83
p700
I4
sV139
p701
I1
sV84
p702
I1
sV25
p703
I1
sV20
p704
I2
sV21
p705
I3
sV48
p706
I1
sV23
p707
I18
sV47
p708
I1
sV44
p709
I668
sV45
p710
I1
sV94
p711
I1
sg11
I18
sg4
I25
sV97
p712
I4
sV7
p713
I2
sg204
I13
sV8
p714
I1
sV140
p715
I10
sV99
p716
I1
sV98
p717
I1
sV75
p718
I2
sV74
p719
I1
sV73
p720
I1
sV128
p721
I13
sV92
p722
I9
sV95
p723
I5
sV107
p724
I2
sV79
p725
I1
sV96
p726
I4
sV11
p727
I10
sV10
p728
I7
sV39
p729
I5
sV12
p730
I5
sV38
p731
I2
sV33
p732
I1
sV54
p733
I1
sV49
p734
I1
sV37
p735
I430
sV122
p736
I2
sV35
p737
I934
sV52
p738
I1
sV55
p739
I4
sV18
p740
I2
ssL17L
(dp741
V115
p742
I61
sV119
p743
I1
sV48
p744
I2
sV23
p745
I1
sV32
p746
I13
sV49
p747
I2
sV50
p748
I2
sV133
p749
I4
sV111
p750
I56
sV64
p751
I1
sV106
p752
I94
sV104
p753
I131
sV105
p754
I84
ssL18L
(dp755
V115
p756
I11
sV82
p757
I1
sV62
p758
I103
sV111
p759
I19
sV65
p760
I1
sV67
p761
I1
sV68
p762
I4
sV69
p763
I1
sV84
p764
I1
sV85
p765
I2
sV24
p766
I1
sV21
p767
I1
sV23
p768
I22
sV106
p769
I12
sV45
p770
I1
sV42
p771
I2
sg11
I1
sg4
I1
sg35
I3
sg36
I7
sg89
I1
sV79
p772
I1
sV7
p773
I1
sg91
I1
sV96
p774
I1
sV97
p775
I1
sV83
p776
I1
sV95
p777
I2
sV107
p778
I9
sV104
p779
I25
sV105
p780
I19
sV38
p781
I3
sV59
p782
I7
sV58
p783
I7
sV17
p784
I1
sV55
p785
I2
sV32
p786
I17
sV57
p787
I9
ssL19L
(dp788
V30
p789
I2
sV28
p790
I1
sV98
p791
I1
sV29
p792
I2
sV60
p793
I2
sV61
p794
I2
sV116
p795
I17
sV64
p796
I4
sV69
p797
I3
sV82
p798
I1
sV83
p799
I1
sV86
p800
I45
sV87
p801
I54
sV27
p802
I4
sV48
p803
I10
sV23
p804
I2
sV119
p805
I1
sV42
p806
I7
sV43
p807
I6
sg11
I123
sg4
I223
sg203
I8
sV8
p808
I13
sV39
p809
I2
sV99
p810
I5
sV76
p811
I3
sV73
p812
I1
sV72
p813
I2
sV71
p814
I3
sV100
p815
I1
sV94
p816
I2
sV78
p817
I28
sV77
p818
I3
sV13
p819
I116
sV38
p820
I12
sV15
p821
I65
sV14
p822
I72
sV16
p823
I19
sV33
p824
I9
sV49
p825
I8
sV50
p826
I6
sV34
p827
I1
sV63
p828
I2
ss.